
_CustomChar:

;LCD.c,23 :: 		void CustomChar(char pos_row, char pos_char) {
;LCD.c,25 :: 		Lcd_Cmd(64);
	MOVLW       64
	MOVWF       FARG_Lcd_Cmd_out_char+0 
	CALL        _Lcd_Cmd+0, 0
;LCD.c,26 :: 		for (i = 0; i<=7; i++) Lcd_Chr_CP(character[i]);
	CLRF        CustomChar_i_L0+0 
L_CustomChar0:
	MOVF        CustomChar_i_L0+0, 0 
	SUBLW       7
	BTFSS       STATUS+0, 0 
	GOTO        L_CustomChar1
	MOVLW       _character+0
	ADDWF       CustomChar_i_L0+0, 0 
	MOVWF       TBLPTR+0 
	MOVLW       hi_addr(_character+0)
	MOVWF       TBLPTR+1 
	MOVLW       0
	ADDWFC      TBLPTR+1, 1 
	MOVLW       higher_addr(_character+0)
	MOVWF       TBLPTR+2 
	MOVLW       0
	ADDWFC      TBLPTR+2, 1 
	TBLRD*+
	MOVFF       TABLAT+0, FARG_Lcd_Chr_CP_out_char+0
	CALL        _Lcd_Chr_CP+0, 0
	INCF        CustomChar_i_L0+0, 1 
	GOTO        L_CustomChar0
L_CustomChar1:
;LCD.c,27 :: 		Lcd_Cmd(_LCD_RETURN_HOME);
	MOVLW       2
	MOVWF       FARG_Lcd_Cmd_out_char+0 
	CALL        _Lcd_Cmd+0, 0
;LCD.c,28 :: 		Lcd_Chr(pos_row, pos_char, 0);
	MOVF        FARG_CustomChar_pos_row+0, 0 
	MOVWF       FARG_Lcd_Chr_row+0 
	MOVF        FARG_CustomChar_pos_char+0, 0 
	MOVWF       FARG_Lcd_Chr_column+0 
	CLRF        FARG_Lcd_Chr_out_char+0 
	CALL        _Lcd_Chr+0, 0
;LCD.c,29 :: 		}
L_end_CustomChar:
	RETURN      0
; end of _CustomChar

_main:

;LCD.c,32 :: 		void main() {
;LCD.c,33 :: 		lcd_init();
	CALL        _Lcd_Init+0, 0
;LCD.c,34 :: 		lcd_cmd(_LCD_CURSOR_OFF);
	MOVLW       12
	MOVWF       FARG_Lcd_Cmd_out_char+0 
	CALL        _Lcd_Cmd+0, 0
;LCD.c,35 :: 		lcd_Cmd(_LCD_CLEAR);
	MOVLW       1
	MOVWF       FARG_Lcd_Cmd_out_char+0 
	CALL        _Lcd_Cmd+0, 0
;LCD.c,36 :: 		while(1){
L_main3:
;LCD.c,37 :: 		lcd_out(1,1,"valor =");
	MOVLW       1
	MOVWF       FARG_Lcd_Out_row+0 
	MOVLW       1
	MOVWF       FARG_Lcd_Out_column+0 
	MOVLW       ?lstr1_LCD+0
	MOVWF       FARG_Lcd_Out_text+0 
	MOVLW       hi_addr(?lstr1_LCD+0)
	MOVWF       FARG_Lcd_Out_text+1 
	CALL        _Lcd_Out+0, 0
;LCD.c,38 :: 		bytetostr(valor,txt);
	MOVF        _valor+0, 0 
	MOVWF       FARG_ByteToStr_input+0 
	MOVLW       _txt+0
	MOVWF       FARG_ByteToStr_output+0 
	MOVLW       hi_addr(_txt+0)
	MOVWF       FARG_ByteToStr_output+1 
	CALL        _ByteToStr+0, 0
;LCD.c,39 :: 		lcd_out_cp(txt);
	MOVLW       _txt+0
	MOVWF       FARG_Lcd_Out_CP_text+0 
	MOVLW       hi_addr(_txt+0)
	MOVWF       FARG_Lcd_Out_CP_text+1 
	CALL        _Lcd_Out_CP+0, 0
;LCD.c,40 :: 		delay_ms(1000);
	MOVLW       26
	MOVWF       R11, 0
	MOVLW       94
	MOVWF       R12, 0
	MOVLW       110
	MOVWF       R13, 0
L_main5:
	DECFSZ      R13, 1, 1
	BRA         L_main5
	DECFSZ      R12, 1, 1
	BRA         L_main5
	DECFSZ      R11, 1, 1
	BRA         L_main5
	NOP
;LCD.c,42 :: 		lcd_out(2,1,"numero =");
	MOVLW       2
	MOVWF       FARG_Lcd_Out_row+0 
	MOVLW       1
	MOVWF       FARG_Lcd_Out_column+0 
	MOVLW       ?lstr2_LCD+0
	MOVWF       FARG_Lcd_Out_text+0 
	MOVLW       hi_addr(?lstr2_LCD+0)
	MOVWF       FARG_Lcd_Out_text+1 
	CALL        _Lcd_Out+0, 0
;LCD.c,43 :: 		bytetostr(numero,txt);
	MOVF        _numero+0, 0 
	MOVWF       FARG_ByteToStr_input+0 
	MOVLW       _txt+0
	MOVWF       FARG_ByteToStr_output+0 
	MOVLW       hi_addr(_txt+0)
	MOVWF       FARG_ByteToStr_output+1 
	CALL        _ByteToStr+0, 0
;LCD.c,44 :: 		lcd_out_cp(txt);
	MOVLW       _txt+0
	MOVWF       FARG_Lcd_Out_CP_text+0 
	MOVLW       hi_addr(_txt+0)
	MOVWF       FARG_Lcd_Out_CP_text+1 
	CALL        _Lcd_Out_CP+0, 0
;LCD.c,45 :: 		delay_ms(1000);
	MOVLW       26
	MOVWF       R11, 0
	MOVLW       94
	MOVWF       R12, 0
	MOVLW       110
	MOVWF       R13, 0
L_main6:
	DECFSZ      R13, 1, 1
	BRA         L_main6
	DECFSZ      R12, 1, 1
	BRA         L_main6
	DECFSZ      R11, 1, 1
	BRA         L_main6
	NOP
;LCD.c,47 :: 		lcd_out(1,1,"real = ");
	MOVLW       1
	MOVWF       FARG_Lcd_Out_row+0 
	MOVLW       1
	MOVWF       FARG_Lcd_Out_column+0 
	MOVLW       ?lstr3_LCD+0
	MOVWF       FARG_Lcd_Out_text+0 
	MOVLW       hi_addr(?lstr3_LCD+0)
	MOVWF       FARG_Lcd_Out_text+1 
	CALL        _Lcd_Out+0, 0
;LCD.c,48 :: 		floattostr(real,txt);
	MOVF        _real+0, 0 
	MOVWF       FARG_FloatToStr_fnum+0 
	MOVF        _real+1, 0 
	MOVWF       FARG_FloatToStr_fnum+1 
	MOVF        _real+2, 0 
	MOVWF       FARG_FloatToStr_fnum+2 
	MOVF        _real+3, 0 
	MOVWF       FARG_FloatToStr_fnum+3 
	MOVLW       _txt+0
	MOVWF       FARG_FloatToStr_str+0 
	MOVLW       hi_addr(_txt+0)
	MOVWF       FARG_FloatToStr_str+1 
	CALL        _FloatToStr+0, 0
;LCD.c,49 :: 		lcd_out_cp(txt);
	MOVLW       _txt+0
	MOVWF       FARG_Lcd_Out_CP_text+0 
	MOVLW       hi_addr(_txt+0)
	MOVWF       FARG_Lcd_Out_CP_text+1 
	CALL        _Lcd_Out_CP+0, 0
;LCD.c,50 :: 		delay_ms(1000);
	MOVLW       26
	MOVWF       R11, 0
	MOVLW       94
	MOVWF       R12, 0
	MOVLW       110
	MOVWF       R13, 0
L_main7:
	DECFSZ      R13, 1, 1
	BRA         L_main7
	DECFSZ      R12, 1, 1
	BRA         L_main7
	DECFSZ      R11, 1, 1
	BRA         L_main7
	NOP
;LCD.c,52 :: 		CustomChar(2,16);
	MOVLW       2
	MOVWF       FARG_CustomChar_pos_row+0 
	MOVLW       16
	MOVWF       FARG_CustomChar_pos_char+0 
	CALL        _CustomChar+0, 0
;LCD.c,53 :: 		delay_ms(1000);
	MOVLW       26
	MOVWF       R11, 0
	MOVLW       94
	MOVWF       R12, 0
	MOVLW       110
	MOVWF       R13, 0
L_main8:
	DECFSZ      R13, 1, 1
	BRA         L_main8
	DECFSZ      R12, 1, 1
	BRA         L_main8
	DECFSZ      R11, 1, 1
	BRA         L_main8
	NOP
;LCD.c,55 :: 		lcd_cmd(_LCD_CLEAR);
	MOVLW       1
	MOVWF       FARG_Lcd_Cmd_out_char+0 
	CALL        _Lcd_Cmd+0, 0
;LCD.c,56 :: 		delay_ms(1000);
	MOVLW       26
	MOVWF       R11, 0
	MOVLW       94
	MOVWF       R12, 0
	MOVLW       110
	MOVWF       R13, 0
L_main9:
	DECFSZ      R13, 1, 1
	BRA         L_main9
	DECFSZ      R12, 1, 1
	BRA         L_main9
	DECFSZ      R11, 1, 1
	BRA         L_main9
	NOP
;LCD.c,58 :: 		}
	GOTO        L_main3
;LCD.c,59 :: 		}
L_end_main:
	GOTO        $+0
; end of _main
